; Function Attrs: nounwind uwtable
define range(i32 -1, 1) i32 @H5F__post_open(ptr noundef %0) local_unnamed_addr #0 {
  %2 = getelementptr inbounds i8, ptr %0, i64 16
  %3 = load ptr, ptr %2, align 8
  %4 = getelementptr inbounds i8, ptr %3, i64 1496
  %5 = load i64, ptr %4, align 8
  %6 = tail call ptr @H5VL_create_object_using_vol_id(i32 noundef 1, ptr noundef %0, i64 noundef %5) #22
  %7 = getelementptr inbounds i8, ptr %0, i64 24
  store ptr %6, ptr %7, align 8
  %8 = icmp eq ptr %6, null
  br i1 %8, label %9, label %13

9:                                                ; preds = %1
  %10 = load i64, ptr @H5E_FILE_g, align 8
  %11 = load i64, ptr @H5E_CANTINIT_g, align 8
  %12 = tail call i32 (ptr, ptr, i32, i64, i64, ptr, ...) @H5E_printf_stack(ptr noundef nonnull @.str.2, ptr noundef nonnull @__func__.H5F__post_open, i32 noundef 2235, i64 noundef %10, i64 noundef %11, ptr noundef nonnull @.str.117) #22
  br label %13

13:                                               ; preds = %1, %9
  %.0 = phi i32 [ -1, %9 ], [ 0, %1 ]
  ret i32 %.0
}